target datalayout = "e-m:e-p270:32:32-p271:32:32-p272:64:64-i64:64-i128:128-f80:128-n8:16:32:64-S128"
target triple = "x86_64-pc-linux-gnu"

@hf_smb2_file_allocation_info = internal global i32 0, align 4
@ett_smb2_file_allocation_info = internal global i32 0, align 4

; Function Attrs: null_pointer_is_valid sspstrong uwtable
define internal i32 @dissect_smb2_file_allocation_info(ptr noundef %0, ptr noundef %1, ptr noundef %2, i32 noundef %3, ptr noundef %4) #0 {
  %6 = alloca ptr, align 8
  %7 = alloca ptr, align 8
  %8 = alloca ptr, align 8
  %9 = alloca i32, align 4
  %10 = alloca ptr, align 8
  %11 = alloca ptr, align 8
  %12 = alloca ptr, align 8
  %13 = alloca i16, align 2
  %14 = alloca i8, align 1
  store ptr %0, ptr %6, align 8
  store ptr %1, ptr %7, align 8
  store ptr %2, ptr %8, align 8
  store i32 %3, ptr %9, align 4
  store ptr %4, ptr %10, align 8
  call void @llvm.lifetime.start.p0(i64 8, ptr %11) #13
  store ptr null, ptr %11, align 8
  call void @llvm.lifetime.start.p0(i64 8, ptr %12) #13
  store ptr null, ptr %12, align 8
  call void @llvm.lifetime.start.p0(i64 2, ptr %13) #13
  call void @llvm.lifetime.start.p0(i64 1, ptr %14) #13
  %15 = load ptr, ptr %8, align 8
  %16 = icmp ne ptr %15, null
  br i1 %16, label %17, label %26

17:                                               ; preds = %5
  %18 = load ptr, ptr %8, align 8
  %19 = load i32, ptr @hf_smb2_file_allocation_info, align 4
  %20 = load ptr, ptr %6, align 8
  %21 = load i32, ptr %9, align 4
  %22 = call ptr @proto_tree_add_item(ptr noundef %18, i32 noundef %19, ptr noundef %20, i32 noundef %21, i32 noundef -1, i32 noundef 0)
  store ptr %22, ptr %11, align 8
  %23 = load ptr, ptr %11, align 8
  %24 = load i32, ptr @ett_smb2_file_allocation_info, align 4
  %25 = call ptr @proto_item_add_subtree(ptr noundef %23, i32 noundef %24)
  store ptr %25, ptr %12, align 8
  br label %26

26:                                               ; preds = %17, %5
  %27 = load ptr, ptr %6, align 8
  %28 = load i32, ptr %9, align 4
  %29 = call i32 @tvb_captured_length_remaining(ptr noundef %27, i32 noundef %28)
  %30 = trunc i32 %29 to i16
  store i16 %30, ptr %13, align 2
  %31 = load ptr, ptr %6, align 8
  %32 = load ptr, ptr %7, align 8
  %33 = load ptr, ptr %12, align 8
  %34 = load i32, ptr %9, align 4
  %35 = call i32 @dissect_qsfi_SMB_FILE_ALLOCATION_INFO(ptr noundef %31, ptr noundef %32, ptr noundef %33, i32 noundef %34, ptr noundef %13, ptr noundef %14)
  store i32 %35, ptr %9, align 4
  %36 = load i32, ptr %9, align 4
  call void @llvm.lifetime.end.p0(i64 1, ptr %14) #13
  call void @llvm.lifetime.end.p0(i64 2, ptr %13) #13
  call void @llvm.lifetime.end.p0(i64 8, ptr %12) #13
  call void @llvm.lifetime.end.p0(i64 8, ptr %11) #13
  ret i32 %36
}