; Function Attrs: null_pointer_is_valid sspstrong uwtable
define internal fastcc i32 @dissect_smb2_file_allocation_info(ptr noundef %0, ptr noundef %1, ptr noundef %2, i32 noundef range(i32 0, 65536) %3) unnamed_addr #0 {
  %5 = alloca i16, align 2
  %6 = alloca i8, align 1
  call void @llvm.lifetime.start.p0(i64 2, ptr nonnull %5) #13
  call void @llvm.lifetime.start.p0(i64 1, ptr nonnull %6) #13
  %.not = icmp eq ptr %2, null
  br i1 %.not, label %12, label %7

7:                                                ; preds = %4
  %8 = load i32, ptr @hf_smb2_file_allocation_info, align 4
  %9 = tail call ptr @proto_tree_add_item(ptr noundef nonnull %2, i32 noundef %8, ptr noundef %0, i32 noundef %3, i32 noundef -1, i32 noundef 0)
  %10 = load i32, ptr @ett_smb2_file_allocation_info, align 4
  %11 = tail call ptr @proto_item_add_subtree(ptr noundef %9, i32 noundef %10)
  br label %12

12:                                               ; preds = %7, %4
  %.0 = phi ptr [ %11, %7 ], [ null, %4 ]
  %13 = tail call i32 @tvb_captured_length_remaining(ptr noundef %0, i32 noundef %3)
  %14 = trunc i32 %13 to i16
  store i16 %14, ptr %5, align 2
  %15 = call i32 @dissect_qsfi_SMB_FILE_ALLOCATION_INFO(ptr noundef %0, ptr noundef %1, ptr noundef %.0, i32 noundef %3, ptr noundef nonnull %5, ptr noundef nonnull %6)
  call void @llvm.lifetime.end.p0(i64 1, ptr nonnull %6) #13
  call void @llvm.lifetime.end.p0(i64 2, ptr nonnull %5) #13
  ret i32 %15
}